(lp0
(lp1
S'NUM:dist'
p2
aS'NUM:count'
p3
aS'NUM:money'
p4
aS'NUM:period'
p5
aS'NUM:date'
p6
aa(lp7
S'LOC:other'
p8
aS'LOC:city'
p9
aS'LOC:country'
p10
aS'LOC:state'
p11
aS'LOC:mount'
p12
aa(lp13
S'HUM:ind'
p14
aS'HUM:gr'
p15
aS'HUM:desc'
p16
aS'HUM:title'
p17
aa(lp18
S'DESC:desc'
p19
aS'DESC:def'
p20
aS'DESC:manner'
p21
aS'DESC:reason'
p22
aa(lp23
S'NUM:date'
p24
aS'NUM:count'
p25
aS'NUM:money'
p26
aS'NUM:period'
p27
aS'NUM:other'
p28
aa(lp29
S'NUM:count'
p30
aS'NUM:dist'
p31
aS'NUM:date'
p32
aS'NUM:period'
p33
aS'NUM:other'
p34
aa(lp35
S'HUM:ind'
p36
aS'HUM:gr'
p37
aS'HUM:title'
p38
aS'HUM:desc'
p39
aa(lp40
S'ENTY:food'
p41
aS'ENTY:other'
p42
aS'ENTY:cremat'
p43
aS'ENTY:animal'
p44
aS'ENTY:termeq'
p45
aa(lp46
S'DESC:reason'
p47
aS'DESC:manner'
p48
aS'DESC:desc'
p49
aS'DESC:def'
p50
aa(lp51
S'DESC:desc'
p52
aS'DESC:def'
p53
aS'DESC:manner'
p54
aS'DESC:reason'
p55
aa(lp56
S'LOC:city'
p57
aS'LOC:other'
p58
aS'LOC:country'
p59
aS'LOC:state'
p60
aS'LOC:mount'
p61
aa(lp62
S'HUM:ind'
p63
aS'HUM:gr'
p64
aS'HUM:title'
p65
aS'HUM:desc'
p66
aa(lp67
S'NUM:count'
p68
aS'NUM:date'
p69
aS'NUM:money'
p70
aS'NUM:period'
p71
aS'NUM:other'
p72
aa(lp73
S'HUM:ind'
p74
aS'HUM:gr'
p75
aS'HUM:title'
p76
aS'HUM:desc'
p77
aa(lp78
S'NUM:date'
p79
aS'NUM:count'
p80
aS'NUM:money'
p81
aS'NUM:period'
p82
aS'NUM:other'
p83
aa(lp84
S'NUM:period'
p85
aS'NUM:count'
p86
aS'NUM:date'
p87
aS'NUM:money'
p88
aS'NUM:other'
p89
aa(lp90
S'ENTY:other'
p91
aS'ENTY:cremat'
p92
aS'ENTY:food'
p93
aS'ENTY:word'
p94
aS'ENTY:animal'
p95
aa(lp96
S'HUM:ind'
p97
aS'HUM:gr'
p98
aS'HUM:title'
p99
aS'HUM:desc'
p100
aa(lp101
S'DESC:desc'
p102
aS'DESC:def'
p103
aS'DESC:manner'
p104
aS'DESC:reason'
p105
aa(lp106
S'NUM:date'
p107
aS'NUM:count'
p108
aS'NUM:money'
p109
aS'NUM:period'
p110
aS'NUM:perc'
p111
aa(lp112
S'HUM:ind'
p113
aS'HUM:gr'
p114
aS'HUM:title'
p115
aS'HUM:desc'
p116
aa(lp117
S'DESC:desc'
p118
aS'DESC:def'
p119
aS'DESC:manner'
p120
aS'DESC:reason'
p121
aa(lp122
S'LOC:other'
p123
aS'LOC:country'
p124
aS'LOC:city'
p125
aS'LOC:state'
p126
aS'LOC:mount'
p127
aa(lp128
S'DESC:desc'
p129
aS'DESC:def'
p130
aS'DESC:manner'
p131
aS'DESC:reason'
p132
aa(lp133
S'DESC:desc'
p134
aS'DESC:def'
p135
aS'DESC:manner'
p136
aS'DESC:reason'
p137
aa(lp138
S'HUM:ind'
p139
aS'HUM:gr'
p140
aS'HUM:title'
p141
aS'HUM:desc'
p142
aa(lp143
S'DESC:desc'
p144
aS'DESC:def'
p145
aS'DESC:manner'
p146
aS'DESC:reason'
p147
aa(lp148
S'LOC:other'
p149
aS'LOC:country'
p150
aS'LOC:city'
p151
aS'LOC:state'
p152
aS'LOC:mount'
p153
aa(lp154
S'LOC:other'
p155
aS'LOC:country'
p156
aS'LOC:mount'
p157
aS'LOC:state'
p158
aS'LOC:city'
p159
aa(lp160
S'LOC:other'
p161
aS'LOC:country'
p162
aS'LOC:state'
p163
aS'LOC:city'
p164
aS'LOC:mount'
p165
aa(lp166
S'NUM:count'
p167
aS'NUM:other'
p168
aS'NUM:money'
p169
aS'NUM:date'
p170
aS'NUM:period'
p171
aa(lp172
S'LOC:other'
p173
aS'LOC:mount'
p174
aS'LOC:country'
p175
aS'LOC:city'
p176
aS'LOC:state'
p177
aa(lp178
S'DESC:desc'
p179
aS'DESC:def'
p180
aS'DESC:reason'
p181
aS'DESC:manner'
p182
aa(lp183
S'NUM:count'
p184
aS'NUM:date'
p185
aS'NUM:money'
p186
aS'NUM:period'
p187
aS'NUM:other'
p188
aa(lp189
S'NUM:date'
p190
aS'NUM:count'
p191
aS'NUM:money'
p192
aS'NUM:period'
p193
aS'NUM:other'
p194
aa(lp195
S'NUM:period'
p196
aS'NUM:count'
p197
aS'NUM:date'
p198
aS'NUM:money'
p199
aS'NUM:other'
p200
aa(lp201
S'LOC:other'
p202
aS'LOC:country'
p203
aS'LOC:mount'
p204
aS'LOC:city'
p205
aS'LOC:state'
p206
aa(lp207
S'NUM:count'
p208
aS'NUM:dist'
p209
aS'NUM:date'
p210
aS'NUM:money'
p211
aS'NUM:period'
p212
aa(lp213
S'NUM:count'
p214
aS'NUM:money'
p215
aS'NUM:period'
p216
aS'NUM:other'
p217
aS'NUM:dist'
p218
aa(lp219
S'NUM:count'
p220
aS'NUM:date'
p221
aS'NUM:money'
p222
aS'NUM:period'
p223
aS'NUM:other'
p224
aa(lp225
S'ENTY:food'
p226
aS'ENTY:termeq'
p227
aS'ENTY:other'
p228
aS'ENTY:cremat'
p229
aS'ENTY:techmeth'
p230
aa(lp231
S'DESC:manner'
p232
aS'DESC:desc'
p233
aS'DESC:def'
p234
aS'DESC:reason'
p235
aa(lp236
S'DESC:desc'
p237
aS'DESC:def'
p238
aS'DESC:manner'
p239
aS'DESC:reason'
p240
aa(lp241
S'DESC:desc'
p242
aS'DESC:def'
p243
aS'DESC:manner'
p244
aS'DESC:reason'
p245
aa(lp246
S'ENTY:termeq'
p247
aS'ENTY:cremat'
p248
aS'ENTY:animal'
p249
aS'ENTY:other'
p250
aS'ENTY:dismed'
p251
aa(lp252
S'ENTY:animal'
p253
aS'ENTY:termeq'
p254
aS'ENTY:cremat'
p255
aS'ENTY:food'
p256
aS'ENTY:other'
p257
aa(lp258
S'NUM:count'
p259
aS'NUM:period'
p260
aS'NUM:date'
p261
aS'NUM:money'
p262
aS'NUM:other'
p263
aa(lp264
S'DESC:desc'
p265
aS'DESC:def'
p266
aS'DESC:reason'
p267
aS'DESC:manner'
p268
aa(lp269
S'NUM:count'
p270
aS'NUM:date'
p271
aS'NUM:other'
p272
aS'NUM:money'
p273
aS'NUM:period'
p274
aa(lp275
S'HUM:ind'
p276
aS'HUM:gr'
p277
aS'HUM:title'
p278
aS'HUM:desc'
p279
aa(lp280
S'DESC:def'
p281
aS'DESC:desc'
p282
aS'DESC:reason'
p283
aS'DESC:manner'
p284
aa(lp285
S'HUM:ind'
p286
aS'HUM:gr'
p287
aS'HUM:title'
p288
aS'HUM:desc'
p289
aa(lp290
S'HUM:ind'
p291
aS'HUM:gr'
p292
aS'HUM:title'
p293
aS'HUM:desc'
p294
aa(lp295
S'DESC:desc'
p296
aS'DESC:def'
p297
aS'DESC:manner'
p298
aS'DESC:reason'
p299
aa(lp300
S'DESC:manner'
p301
aS'DESC:desc'
p302
aS'DESC:def'
p303
aS'DESC:reason'
p304
aa(lp305
S'DESC:desc'
p306
aS'DESC:def'
p307
aS'DESC:manner'
p308
aS'DESC:reason'
p309
aa(lp310
S'NUM:date'
p311
aS'NUM:count'
p312
aS'NUM:money'
p313
aS'NUM:period'
p314
aS'NUM:other'
p315
aa(lp316
S'LOC:city'
p317
aS'LOC:other'
p318
aS'LOC:country'
p319
aS'LOC:state'
p320
aS'LOC:mount'
p321
aa(lp322
S'LOC:other'
p323
aS'LOC:country'
p324
aS'LOC:city'
p325
aS'LOC:mount'
p326
aS'LOC:state'
p327
aa(lp328
S'NUM:count'
p329
aS'NUM:date'
p330
aS'NUM:period'
p331
aS'NUM:other'
p332
aS'NUM:money'
p333
aa(lp334
S'LOC:city'
p335
aS'LOC:other'
p336
aS'LOC:state'
p337
aS'LOC:mount'
p338
aS'LOC:country'
p339
aa(lp340
S'HUM:ind'
p341
aS'HUM:gr'
p342
aS'HUM:title'
p343
aS'HUM:desc'
p344
aa(lp345
S'LOC:other'
p346
aS'LOC:country'
p347
aS'LOC:city'
p348
aS'LOC:state'
p349
aS'LOC:mount'
p350
aa(lp351
S'ENTY:food'
p352
aS'ENTY:animal'
p353
aS'ENTY:other'
p354
aS'ENTY:termeq'
p355
aS'ENTY:substance'
p356
aa(lp357
S'LOC:other'
p358
aS'LOC:country'
p359
aS'LOC:state'
p360
aS'LOC:city'
p361
aS'LOC:mount'
p362
aa(lp363
S'HUM:ind'
p364
aS'HUM:gr'
p365
aS'HUM:title'
p366
aS'HUM:desc'
p367
aa(lp368
S'ENTY:termeq'
p369
aS'ENTY:animal'
p370
aS'ENTY:food'
p371
aS'ENTY:other'
p372
aS'ENTY:substance'
p373
aa(lp374
S'DESC:desc'
p375
aS'DESC:def'
p376
aS'DESC:reason'
p377
aS'DESC:manner'
p378
aa(lp379
S'NUM:date'
p380
aS'NUM:count'
p381
aS'NUM:money'
p382
aS'NUM:period'
p383
aS'NUM:other'
p384
aa(lp385
S'LOC:other'
p386
aS'LOC:country'
p387
aS'LOC:city'
p388
aS'LOC:state'
p389
aS'LOC:mount'
p390
aa(lp391
S'NUM:count'
p392
aS'NUM:other'
p393
aS'NUM:date'
p394
aS'NUM:money'
p395
aS'NUM:period'
p396
aa(lp397
S'NUM:money'
p398
aS'NUM:count'
p399
aS'NUM:date'
p400
aS'NUM:other'
p401
aS'NUM:dist'
p402
aa(lp403
S'LOC:city'
p404
aS'LOC:other'
p405
aS'LOC:country'
p406
aS'LOC:state'
p407
aS'LOC:mount'
p408
aa(lp409
S'HUM:ind'
p410
aS'HUM:gr'
p411
aS'HUM:title'
p412
aS'HUM:desc'
p413
aa(lp414
S'LOC:other'
p415
aS'LOC:country'
p416
aS'LOC:mount'
p417
aS'LOC:city'
p418
aS'LOC:state'
p419
aa(lp420
S'DESC:desc'
p421
aS'DESC:def'
p422
aS'DESC:manner'
p423
aS'DESC:reason'
p424
aa(lp425
S'ENTY:other'
p426
aS'ENTY:food'
p427
aS'ENTY:sport'
p428
aS'ENTY:currency'
p429
aS'ENTY:animal'
p430
aa(lp431
S'NUM:count'
p432
aS'NUM:date'
p433
aS'NUM:dist'
p434
aS'NUM:period'
p435
aS'NUM:other'
p436
aa(lp437
S'NUM:count'
p438
aS'NUM:money'
p439
aS'NUM:weight'
p440
aS'NUM:period'
p441
aS'NUM:other'
p442
aa(lp443
S'HUM:ind'
p444
aS'HUM:gr'
p445
aS'HUM:title'
p446
aS'HUM:desc'
p447
aa(lp448
S'DESC:desc'
p449
aS'DESC:def'
p450
aS'DESC:manner'
p451
aS'DESC:reason'
p452
aa(lp453
S'NUM:date'
p454
aS'NUM:count'
p455
aS'NUM:money'
p456
aS'NUM:period'
p457
aS'NUM:other'
p458
aa(lp459
S'HUM:ind'
p460
aS'HUM:gr'
p461
aS'HUM:title'
p462
aS'HUM:desc'
p463
aa(lp464
S'NUM:count'
p465
aS'NUM:other'
p466
aS'NUM:date'
p467
aS'NUM:money'
p468
aS'NUM:period'
p469
aa(lp470
S'NUM:date'
p471
aS'NUM:count'
p472
aS'NUM:money'
p473
aS'NUM:other'
p474
aS'NUM:period'
p475
aa(lp476
S'DESC:reason'
p477
aS'DESC:manner'
p478
aS'DESC:def'
p479
aS'DESC:desc'
p480
aa(lp481
S'DESC:desc'
p482
aS'DESC:def'
p483
aS'DESC:manner'
p484
aS'DESC:reason'
p485
aa(lp486
S'HUM:ind'
p487
aS'HUM:gr'
p488
aS'HUM:title'
p489
aS'HUM:desc'
p490
aa(lp491
S'DESC:desc'
p492
aS'DESC:def'
p493
aS'DESC:reason'
p494
aS'DESC:manner'
p495
aa(lp496
S'LOC:country'
p497
aS'LOC:other'
p498
aS'LOC:city'
p499
aS'LOC:state'
p500
aS'LOC:mount'
p501
aa(lp502
S'ENTY:other'
p503
aS'ENTY:cremat'
p504
aS'ENTY:food'
p505
aS'ENTY:event'
p506
aS'ENTY:sport'
p507
aa(lp508
S'DESC:desc'
p509
aS'DESC:def'
p510
aS'DESC:manner'
p511
aS'DESC:reason'
p512
aa(lp513
S'NUM:count'
p514
aS'NUM:date'
p515
aS'NUM:period'
p516
aS'NUM:money'
p517
aS'NUM:other'
p518
aa(lp519
S'NUM:date'
p520
aS'NUM:count'
p521
aS'NUM:money'
p522
aS'NUM:other'
p523
aS'NUM:period'
p524
aa(lp525
S'HUM:ind'
p526
aS'HUM:gr'
p527
aS'HUM:title'
p528
aS'HUM:desc'
p529
aa(lp530
S'LOC:other'
p531
aS'LOC:country'
p532
aS'LOC:mount'
p533
aS'LOC:city'
p534
aS'LOC:state'
p535
aa(lp536
S'NUM:date'
p537
aS'NUM:count'
p538
aS'NUM:money'
p539
aS'NUM:period'
p540
aS'NUM:perc'
p541
aa(lp542
S'DESC:desc'
p543
aS'DESC:def'
p544
aS'DESC:manner'
p545
aS'DESC:reason'
p546
aa(lp547
S'DESC:desc'
p548
aS'DESC:def'
p549
aS'DESC:reason'
p550
aS'DESC:manner'
p551
aa(lp552
S'ENTY:other'
p553
aS'ENTY:cremat'
p554
aS'ENTY:animal'
p555
aS'ENTY:sport'
p556
aS'ENTY:word'
p557
aa(lp558
S'DESC:desc'
p559
aS'DESC:def'
p560
aS'DESC:manner'
p561
aS'DESC:reason'
p562
aa(lp563
S'HUM:ind'
p564
aS'HUM:gr'
p565
aS'HUM:title'
p566
aS'HUM:desc'
p567
aa(lp568
S'DESC:manner'
p569
aS'DESC:reason'
p570
aS'DESC:desc'
p571
aS'DESC:def'
p572
aa(lp573
S'HUM:ind'
p574
aS'HUM:gr'
p575
aS'HUM:title'
p576
aS'HUM:desc'
p577
aa(lp578
S'LOC:other'
p579
aS'LOC:country'
p580
aS'LOC:city'
p581
aS'LOC:state'
p582
aS'LOC:mount'
p583
aa(lp584
S'DESC:desc'
p585
aS'DESC:def'
p586
aS'DESC:manner'
p587
aS'DESC:reason'
p588
aa(lp589
S'NUM:date'
p590
aS'NUM:period'
p591
aS'NUM:count'
p592
aS'NUM:money'
p593
aS'NUM:other'
p594
aa(lp595
S'ENTY:animal'
p596
aS'ENTY:other'
p597
aS'ENTY:cremat'
p598
aS'ENTY:food'
p599
aS'ENTY:dismed'
p600
aa(lp601
S'NUM:date'
p602
aS'NUM:count'
p603
aS'NUM:money'
p604
aS'NUM:other'
p605
aS'NUM:period'
p606
aa(lp607
S'LOC:other'
p608
aS'LOC:country'
p609
aS'LOC:city'
p610
aS'LOC:state'
p611
aS'LOC:mount'
p612
aa(lp613
S'ENTY:cremat'
p614
aS'ENTY:termeq'
p615
aS'ENTY:sport'
p616
aS'ENTY:color'
p617
aS'ENTY:word'
p618
aa(lp619
S'DESC:desc'
p620
aS'DESC:def'
p621
aS'DESC:manner'
p622
aS'DESC:reason'
p623
aa(lp624
S'NUM:count'
p625
aS'NUM:money'
p626
aS'NUM:date'
p627
aS'NUM:perc'
p628
aS'NUM:period'
p629
aa(lp630
S'HUM:ind'
p631
aS'HUM:gr'
p632
aS'HUM:title'
p633
aS'HUM:desc'
p634
aa(lp635
S'ENTY:other'
p636
aS'ENTY:plant'
p637
aS'ENTY:cremat'
p638
aS'ENTY:animal'
p639
aS'ENTY:food'
p640
aa(lp641
S'HUM:ind'
p642
aS'HUM:gr'
p643
aS'HUM:title'
p644
aS'HUM:desc'
p645
aa(lp646
S'NUM:date'
p647
aS'NUM:count'
p648
aS'NUM:period'
p649
aS'NUM:money'
p650
aS'NUM:other'
p651
aa(lp652
S'ENTY:substance'
p653
aS'ENTY:other'
p654
aS'ENTY:animal'
p655
aS'ENTY:termeq'
p656
aS'ENTY:cremat'
p657
aa(lp658
S'NUM:count'
p659
aS'NUM:date'
p660
aS'NUM:period'
p661
aS'NUM:other'
p662
aS'NUM:perc'
p663
aa(lp664
S'LOC:other'
p665
aS'LOC:country'
p666
aS'LOC:mount'
p667
aS'LOC:city'
p668
aS'LOC:state'
p669
aa(lp670
S'NUM:date'
p671
aS'NUM:count'
p672
aS'NUM:money'
p673
aS'NUM:period'
p674
aS'NUM:perc'
p675
aa(lp676
S'NUM:count'
p677
aS'NUM:money'
p678
aS'NUM:period'
p679
aS'NUM:other'
p680
aS'NUM:dist'
p681
aa(lp682
S'DESC:desc'
p683
aS'DESC:def'
p684
aS'DESC:manner'
p685
aS'DESC:reason'
p686
aa(lp687
S'HUM:ind'
p688
aS'HUM:gr'
p689
aS'HUM:title'
p690
aS'HUM:desc'
p691
aa(lp692
S'NUM:count'
p693
aS'NUM:date'
p694
aS'NUM:period'
p695
aS'NUM:money'
p696
aS'NUM:other'
p697
aa(lp698
S'HUM:ind'
p699
aS'HUM:gr'
p700
aS'HUM:title'
p701
aS'HUM:desc'
p702
aa(lp703
S'NUM:period'
p704
aS'NUM:count'
p705
aS'NUM:dist'
p706
aS'NUM:date'
p707
aS'NUM:other'
p708
aa(lp709
S'NUM:date'
p710
aS'NUM:count'
p711
aS'NUM:period'
p712
aS'NUM:money'
p713
aS'NUM:other'
p714
aa(lp715
S'DESC:desc'
p716
aS'DESC:def'
p717
aS'DESC:manner'
p718
aS'DESC:reason'
p719
aa(lp720
S'NUM:period'
p721
aS'NUM:count'
p722
aS'NUM:money'
p723
aS'NUM:date'
p724
aS'NUM:other'
p725
aa(lp726
S'NUM:count'
p727
aS'NUM:dist'
p728
aS'NUM:money'
p729
aS'NUM:date'
p730
aS'NUM:period'
p731
aa(lp732
S'HUM:ind'
p733
aS'HUM:gr'
p734
aS'HUM:title'
p735
aS'HUM:desc'
p736
aa(lp737
S'DESC:def'
p738
aS'DESC:desc'
p739
aS'DESC:reason'
p740
aS'DESC:manner'
p741
aa(lp742
S'ENTY:food'
p743
aS'ENTY:animal'
p744
aS'ENTY:other'
p745
aS'ENTY:cremat'
p746
aS'ENTY:event'
p747
aa(lp748
S'DESC:desc'
p749
aS'DESC:def'
p750
aS'DESC:manner'
p751
aS'DESC:reason'
p752
aa(lp753
S'ENTY:other'
p754
aS'ENTY:cremat'
p755
aS'ENTY:food'
p756
aS'ENTY:animal'
p757
aS'ENTY:termeq'
p758
aa(lp759
S'LOC:other'
p760
aS'LOC:country'
p761
aS'LOC:mount'
p762
aS'LOC:state'
p763
aS'LOC:city'
p764
aa(lp765
S'HUM:ind'
p766
aS'HUM:gr'
p767
aS'HUM:title'
p768
aS'HUM:desc'
p769
aa(lp770
S'HUM:ind'
p771
aS'HUM:gr'
p772
aS'HUM:title'
p773
aS'HUM:desc'
p774
aa(lp775
S'DESC:desc'
p776
aS'DESC:def'
p777
aS'DESC:reason'
p778
aS'DESC:manner'
p779
aa(lp780
S'DESC:desc'
p781
aS'DESC:def'
p782
aS'DESC:manner'
p783
aS'DESC:reason'
p784
aa(lp785
S'ENTY:animal'
p786
aS'ENTY:other'
p787
aS'ENTY:cremat'
p788
aS'ENTY:termeq'
p789
aS'ENTY:dismed'
p790
aa(lp791
S'LOC:other'
p792
aS'LOC:country'
p793
aS'LOC:mount'
p794
aS'LOC:state'
p795
aS'LOC:city'
p796
aa(lp797
S'ENTY:cremat'
p798
aS'ENTY:animal'
p799
aS'ENTY:food'
p800
aS'ENTY:other'
p801
aS'ENTY:dismed'
p802
aa(lp803
S'DESC:desc'
p804
aS'DESC:def'
p805
aS'DESC:manner'
p806
aS'DESC:reason'
p807
aa(lp808
S'ENTY:substance'
p809
aS'ENTY:other'
p810
aS'ENTY:cremat'
p811
aS'ENTY:animal'
p812
aS'ENTY:word'
p813
aa(lp814
S'HUM:ind'
p815
aS'HUM:gr'
p816
aS'HUM:title'
p817
aS'HUM:desc'
p818
aa(lp819
S'ENTY:veh'
p820
aS'ENTY:other'
p821
aS'ENTY:food'
p822
aS'ENTY:cremat'
p823
aS'ENTY:animal'
p824
aa(lp825
S'DESC:def'
p826
aS'DESC:desc'
p827
aS'DESC:reason'
p828
aS'DESC:manner'
p829
aa(lp830
S'DESC:desc'
p831
aS'DESC:def'
p832
aS'DESC:manner'
p833
aS'DESC:reason'
p834
aa(lp835
S'ENTY:termeq'
p836
aS'ENTY:word'
p837
aS'ENTY:dismed'
p838
aS'ENTY:food'
p839
aS'ENTY:other'
p840
aa(lp841
S'HUM:ind'
p842
aS'HUM:gr'
p843
aS'HUM:title'
p844
aS'HUM:desc'
p845
aa(lp846
S'DESC:def'
p847
aS'DESC:desc'
p848
aS'DESC:reason'
p849
aS'DESC:manner'
p850
aa(lp851
S'NUM:date'
p852
aS'NUM:count'
p853
aS'NUM:money'
p854
aS'NUM:period'
p855
aS'NUM:other'
p856
aa(lp857
S'HUM:ind'
p858
aS'HUM:gr'
p859
aS'HUM:title'
p860
aS'HUM:desc'
p861
aa(lp862
S'LOC:other'
p863
aS'LOC:mount'
p864
aS'LOC:country'
p865
aS'LOC:state'
p866
aS'LOC:city'
p867
aa(lp868
S'LOC:city'
p869
aS'LOC:other'
p870
aS'LOC:country'
p871
aS'LOC:state'
p872
aS'LOC:mount'
p873
aa(lp874
S'DESC:desc'
p875
aS'DESC:def'
p876
aS'DESC:manner'
p877
aS'DESC:reason'
p878
aa(lp879
S'LOC:other'
p880
aS'LOC:country'
p881
aS'LOC:city'
p882
aS'LOC:state'
p883
aS'LOC:mount'
p884
aa(lp885
S'LOC:city'
p886
aS'LOC:state'
p887
aS'LOC:other'
p888
aS'LOC:country'
p889
aS'LOC:mount'
p890
aa(lp891
S'DESC:desc'
p892
aS'DESC:def'
p893
aS'DESC:manner'
p894
aS'DESC:reason'
p895
aa(lp896
S'DESC:desc'
p897
aS'DESC:def'
p898
aS'DESC:reason'
p899
aS'DESC:manner'
p900
aa(lp901
S'NUM:date'
p902
aS'NUM:count'
p903
aS'NUM:money'
p904
aS'NUM:period'
p905
aS'NUM:other'
p906
aa(lp907
S'LOC:other'
p908
aS'LOC:country'
p909
aS'LOC:mount'
p910
aS'LOC:state'
p911
aS'LOC:city'
p912
aa(lp913
S'ENTY:termeq'
p914
aS'ENTY:dismed'
p915
aS'ENTY:word'
p916
aS'ENTY:other'
p917
aS'ENTY:cremat'
p918
aa(lp919
S'LOC:other'
p920
aS'LOC:country'
p921
aS'LOC:city'
p922
aS'LOC:state'
p923
aS'LOC:mount'
p924
aa(lp925
S'NUM:date'
p926
aS'NUM:count'
p927
aS'NUM:money'
p928
aS'NUM:other'
p929
aS'NUM:period'
p930
aa(lp931
S'DESC:desc'
p932
aS'DESC:def'
p933
aS'DESC:manner'
p934
aS'DESC:reason'
p935
aa(lp936
S'LOC:other'
p937
aS'LOC:state'
p938
aS'LOC:city'
p939
aS'LOC:country'
p940
aS'LOC:mount'
p941
aa(lp942
S'HUM:ind'
p943
aS'HUM:gr'
p944
aS'HUM:title'
p945
aS'HUM:desc'
p946
aa(lp947
S'NUM:date'
p948
aS'NUM:count'
p949
aS'NUM:period'
p950
aS'NUM:money'
p951
aS'NUM:other'
p952
aa(lp953
S'NUM:count'
p954
aS'NUM:date'
p955
aS'NUM:period'
p956
aS'NUM:other'
p957
aS'NUM:dist'
p958
aa(lp959
S'NUM:date'
p960
aS'NUM:count'
p961
aS'NUM:money'
p962
aS'NUM:period'
p963
aS'NUM:other'
p964
aa(lp965
S'DESC:desc'
p966
aS'DESC:def'
p967
aS'DESC:manner'
p968
aS'DESC:reason'
p969
aa(lp970
S'LOC:other'
p971
aS'LOC:country'
p972
aS'LOC:mount'
p973
aS'LOC:city'
p974
aS'LOC:state'
p975
aa(lp976
S'LOC:other'
p977
aS'LOC:city'
p978
aS'LOC:country'
p979
aS'LOC:state'
p980
aS'LOC:mount'
p981
aa(lp982
S'LOC:other'
p983
aS'LOC:country'
p984
aS'LOC:mount'
p985
aS'LOC:state'
p986
aS'LOC:city'
p987
aa(lp988
S'NUM:date'
p989
aS'NUM:money'
p990
aS'NUM:count'
p991
aS'NUM:period'
p992
aS'NUM:other'
p993
aa(lp994
S'ENTY:other'
p995
aS'ENTY:food'
p996
aS'ENTY:cremat'
p997
aS'ENTY:animal'
p998
aS'ENTY:sport'
p999
aa(lp1000
S'NUM:dist'
p1001
aS'NUM:count'
p1002
aS'NUM:date'
p1003
aS'NUM:period'
p1004
aS'NUM:money'
p1005
aa(lp1006
S'LOC:other'
p1007
aS'LOC:country'
p1008
aS'LOC:city'
p1009
aS'LOC:state'
p1010
aS'LOC:mount'
p1011
aa(lp1012
S'DESC:desc'
p1013
aS'DESC:def'
p1014
aS'DESC:manner'
p1015
aS'DESC:reason'
p1016
aa(lp1017
S'LOC:other'
p1018
aS'LOC:country'
p1019
aS'LOC:mount'
p1020
aS'LOC:city'
p1021
aS'LOC:state'
p1022
aa(lp1023
S'DESC:desc'
p1024
aS'DESC:def'
p1025
aS'DESC:manner'
p1026
aS'DESC:reason'
p1027
aa(lp1028
S'ENTY:other'
p1029
aS'ENTY:substance'
p1030
aS'ENTY:cremat'
p1031
aS'ENTY:animal'
p1032
aS'ENTY:food'
p1033
aa(lp1034
S'HUM:ind'
p1035
aS'HUM:gr'
p1036
aS'HUM:title'
p1037
aS'HUM:desc'
p1038
aa(lp1039
S'HUM:ind'
p1040
aS'HUM:gr'
p1041
aS'HUM:title'
p1042
aS'HUM:desc'
p1043
aa(lp1044
S'DESC:def'
p1045
aS'DESC:desc'
p1046
aS'DESC:manner'
p1047
aS'DESC:reason'
p1048
aa(lp1049
S'LOC:other'
p1050
aS'LOC:country'
p1051
aS'LOC:state'
p1052
aS'LOC:city'
p1053
aS'LOC:mount'
p1054
aa(lp1055
S'ENTY:other'
p1056
aS'ENTY:cremat'
p1057
aS'ENTY:animal'
p1058
aS'ENTY:food'
p1059
aS'ENTY:termeq'
p1060
aa(lp1061
S'ENTY:cremat'
p1062
aS'ENTY:other'
p1063
aS'ENTY:dismed'
p1064
aS'ENTY:termeq'
p1065
aS'ENTY:sport'
p1066
aa(lp1067
S'NUM:count'
p1068
aS'NUM:date'
p1069
aS'NUM:period'
p1070
aS'NUM:money'
p1071
aS'NUM:other'
p1072
aa(lp1073
S'NUM:period'
p1074
aS'NUM:count'
p1075
aS'NUM:date'
p1076
aS'NUM:money'
p1077
aS'NUM:other'
p1078
aa(lp1079
S'NUM:date'
p1080
aS'NUM:money'
p1081
aS'NUM:count'
p1082
aS'NUM:period'
p1083
aS'NUM:other'
p1084
aa(lp1085
S'DESC:def'
p1086
aS'DESC:desc'
p1087
aS'DESC:manner'
p1088
aS'DESC:reason'
p1089
aa(lp1090
S'LOC:city'
p1091
aS'LOC:other'
p1092
aS'LOC:country'
p1093
aS'LOC:state'
p1094
aS'LOC:mount'
p1095
aa(lp1096
S'ENTY:other'
p1097
aS'ENTY:cremat'
p1098
aS'ENTY:food'
p1099
aS'ENTY:sport'
p1100
aS'ENTY:dismed'
p1101
aa(lp1102
S'HUM:ind'
p1103
aS'HUM:gr'
p1104
aS'HUM:title'
p1105
aS'HUM:desc'
p1106
aa(lp1107
S'ENTY:other'
p1108
aS'ENTY:cremat'
p1109
aS'ENTY:product'
p1110
aS'ENTY:animal'
p1111
aS'ENTY:food'
p1112
aa(lp1113
S'ENTY:food'
p1114
aS'ENTY:cremat'
p1115
aS'ENTY:substance'
p1116
aS'ENTY:other'
p1117
aS'ENTY:animal'
p1118
aa(lp1119
S'ENTY:other'
p1120
aS'ENTY:cremat'
p1121
aS'ENTY:animal'
p1122
aS'ENTY:event'
p1123
aS'ENTY:veh'
p1124
aa(lp1125
S'LOC:city'
p1126
aS'LOC:other'
p1127
aS'LOC:country'
p1128
aS'LOC:state'
p1129
aS'LOC:mount'
p1130
aa(lp1131
S'HUM:ind'
p1132
aS'HUM:gr'
p1133
aS'HUM:title'
p1134
aS'HUM:desc'
p1135
aa(lp1136
S'ENTY:other'
p1137
aS'ENTY:food'
p1138
aS'ENTY:termeq'
p1139
aS'ENTY:cremat'
p1140
aS'ENTY:animal'
p1141
aa(lp1142
S'NUM:date'
p1143
aS'NUM:money'
p1144
aS'NUM:count'
p1145
aS'NUM:period'
p1146
aS'NUM:other'
p1147
aa(lp1148
S'LOC:other'
p1149
aS'LOC:country'
p1150
aS'LOC:state'
p1151
aS'LOC:mount'
p1152
aS'LOC:city'
p1153
aa(lp1154
S'HUM:ind'
p1155
aS'HUM:gr'
p1156
aS'HUM:title'
p1157
aS'HUM:desc'
p1158
aa(lp1159
S'NUM:count'
p1160
aS'NUM:period'
p1161
aS'NUM:other'
p1162
aS'NUM:date'
p1163
aS'NUM:money'
p1164
aa(lp1165
S'DESC:def'
p1166
aS'DESC:desc'
p1167
aS'DESC:manner'
p1168
aS'DESC:reason'
p1169
aa(lp1170
S'DESC:desc'
p1171
aS'DESC:def'
p1172
aS'DESC:manner'
p1173
aS'DESC:reason'
p1174
aa(lp1175
S'NUM:date'
p1176
aS'NUM:count'
p1177
aS'NUM:money'
p1178
aS'NUM:other'
p1179
aS'NUM:period'
p1180
aa(lp1181
S'NUM:count'
p1182
aS'NUM:money'
p1183
aS'NUM:period'
p1184
aS'NUM:other'
p1185
aS'NUM:date'
p1186
aa(lp1187
S'LOC:state'
p1188
aS'LOC:other'
p1189
aS'LOC:city'
p1190
aS'LOC:country'
p1191
aS'LOC:mount'
p1192
aa(lp1193
S'LOC:other'
p1194
aS'LOC:city'
p1195
aS'LOC:country'
p1196
aS'LOC:state'
p1197
aS'LOC:mount'
p1198
aa(lp1199
S'DESC:desc'
p1200
aS'DESC:def'
p1201
aS'DESC:manner'
p1202
aS'DESC:reason'
p1203
aa(lp1204
S'ENTY:other'
p1205
aS'ENTY:food'
p1206
aS'ENTY:word'
p1207
aS'ENTY:cremat'
p1208
aS'ENTY:animal'
p1209
aa(lp1210
S'DESC:desc'
p1211
aS'DESC:def'
p1212
aS'DESC:manner'
p1213
aS'DESC:reason'
p1214
aa(lp1215
S'ENTY:other'
p1216
aS'ENTY:cremat'
p1217
aS'ENTY:food'
p1218
aS'ENTY:termeq'
p1219
aS'ENTY:animal'
p1220
aa(lp1221
S'NUM:count'
p1222
aS'NUM:date'
p1223
aS'NUM:money'
p1224
aS'NUM:weight'
p1225
aS'NUM:period'
p1226
aa(lp1227
S'DESC:desc'
p1228
aS'DESC:def'
p1229
aS'DESC:manner'
p1230
aS'DESC:reason'
p1231
aa(lp1232
S'DESC:desc'
p1233
aS'DESC:def'
p1234
aS'DESC:manner'
p1235
aS'DESC:reason'
p1236
aa(lp1237
S'NUM:date'
p1238
aS'NUM:count'
p1239
aS'NUM:money'
p1240
aS'NUM:period'
p1241
aS'NUM:other'
p1242
aa(lp1243
S'DESC:def'
p1244
aS'DESC:desc'
p1245
aS'DESC:manner'
p1246
aS'DESC:reason'
p1247
aa(lp1248
S'ENTY:cremat'
p1249
aS'ENTY:termeq'
p1250
aS'ENTY:sport'
p1251
aS'ENTY:other'
p1252
aS'ENTY:animal'
p1253
aa(lp1254
S'LOC:other'
p1255
aS'LOC:country'
p1256
aS'LOC:city'
p1257
aS'LOC:state'
p1258
aS'LOC:mount'
p1259
aa(lp1260
S'ENTY:other'
p1261
aS'ENTY:food'
p1262
aS'ENTY:substance'
p1263
aS'ENTY:cremat'
p1264
aS'ENTY:color'
p1265
aa(lp1266
S'NUM:count'
p1267
aS'NUM:other'
p1268
aS'NUM:date'
p1269
aS'NUM:money'
p1270
aS'NUM:period'
p1271
aa(lp1272
S'DESC:desc'
p1273
aS'DESC:manner'
p1274
aS'DESC:reason'
p1275
aS'DESC:def'
p1276
aa(lp1277
S'LOC:other'
p1278
aS'LOC:country'
p1279
aS'LOC:mount'
p1280
aS'LOC:state'
p1281
aS'LOC:city'
p1282
aa(lp1283
S'HUM:ind'
p1284
aS'HUM:gr'
p1285
aS'HUM:title'
p1286
aS'HUM:desc'
p1287
aa(lp1288
S'NUM:date'
p1289
aS'NUM:count'
p1290
aS'NUM:money'
p1291
aS'NUM:period'
p1292
aS'NUM:other'
p1293
aa(lp1294
S'HUM:ind'
p1295
aS'HUM:gr'
p1296
aS'HUM:title'
p1297
aS'HUM:desc'
p1298
aa(lp1299
S'DESC:desc'
p1300
aS'DESC:def'
p1301
aS'DESC:manner'
p1302
aS'DESC:reason'
p1303
aa(lp1304
S'NUM:count'
p1305
aS'NUM:date'
p1306
aS'NUM:money'
p1307
aS'NUM:weight'
p1308
aS'NUM:period'
p1309
aa(lp1310
S'ENTY:cremat'
p1311
aS'ENTY:animal'
p1312
aS'ENTY:color'
p1313
aS'ENTY:other'
p1314
aS'ENTY:dismed'
p1315
aa(lp1316
S'DESC:desc'
p1317
aS'DESC:def'
p1318
aS'DESC:manner'
p1319
aS'DESC:reason'
p1320
aa(lp1321
S'LOC:other'
p1322
aS'LOC:country'
p1323
aS'LOC:city'
p1324
aS'LOC:mount'
p1325
aS'LOC:state'
p1326
aa(lp1327
S'DESC:desc'
p1328
aS'DESC:def'
p1329
aS'DESC:manner'
p1330
aS'DESC:reason'
p1331
aa(lp1332
S'LOC:other'
p1333
aS'LOC:country'
p1334
aS'LOC:state'
p1335
aS'LOC:city'
p1336
aS'LOC:mount'
p1337
aa(lp1338
S'NUM:count'
p1339
aS'NUM:date'
p1340
aS'NUM:period'
p1341
aS'NUM:other'
p1342
aS'NUM:dist'
p1343
aa(lp1344
S'LOC:city'
p1345
aS'LOC:state'
p1346
aS'LOC:other'
p1347
aS'LOC:country'
p1348
aS'LOC:mount'
p1349
aa(lp1350
S'DESC:desc'
p1351
aS'DESC:def'
p1352
aS'DESC:manner'
p1353
aS'DESC:reason'
p1354
aa(lp1355
S'DESC:reason'
p1356
aS'DESC:desc'
p1357
aS'DESC:def'
p1358
aS'DESC:manner'
p1359
aa(lp1360
S'DESC:def'
p1361
aS'DESC:desc'
p1362
aS'DESC:manner'
p1363
aS'DESC:reason'
p1364
aa(lp1365
S'DESC:desc'
p1366
aS'DESC:def'
p1367
aS'DESC:manner'
p1368
aS'DESC:reason'
p1369
aa(lp1370
S'LOC:other'
p1371
aS'LOC:state'
p1372
aS'LOC:country'
p1373
aS'LOC:city'
p1374
aS'LOC:mount'
p1375
aa(lp1376
S'DESC:desc'
p1377
aS'DESC:def'
p1378
aS'DESC:manner'
p1379
aS'DESC:reason'
p1380
aa(lp1381
S'DESC:def'
p1382
aS'DESC:desc'
p1383
aS'DESC:manner'
p1384
aS'DESC:reason'
p1385
aa(lp1386
S'DESC:manner'
p1387
aS'DESC:desc'
p1388
aS'DESC:reason'
p1389
aS'DESC:def'
p1390
aa(lp1391
S'ENTY:product'
p1392
aS'ENTY:cremat'
p1393
aS'ENTY:animal'
p1394
aS'ENTY:dismed'
p1395
aS'ENTY:termeq'
p1396
aa(lp1397
S'HUM:ind'
p1398
aS'HUM:gr'
p1399
aS'HUM:title'
p1400
aS'HUM:desc'
p1401
aa(lp1402
S'LOC:city'
p1403
aS'LOC:other'
p1404
aS'LOC:country'
p1405
aS'LOC:state'
p1406
aS'LOC:mount'
p1407
aa(lp1408
S'ENTY:cremat'
p1409
aS'ENTY:other'
p1410
aS'ENTY:food'
p1411
aS'ENTY:sport'
p1412
aS'ENTY:event'
p1413
aa(lp1414
S'ENTY:other'
p1415
aS'ENTY:food'
p1416
aS'ENTY:substance'
p1417
aS'ENTY:cremat'
p1418
aS'ENTY:animal'
p1419
aa(lp1420
S'DESC:desc'
p1421
aS'DESC:def'
p1422
aS'DESC:manner'
p1423
aS'DESC:reason'
p1424
aa(lp1425
S'LOC:other'
p1426
aS'LOC:country'
p1427
aS'LOC:state'
p1428
aS'LOC:city'
p1429
aS'LOC:mount'
p1430
aa(lp1431
S'NUM:count'
p1432
aS'NUM:date'
p1433
aS'NUM:money'
p1434
aS'NUM:period'
p1435
aS'NUM:other'
p1436
aa(lp1437
S'ENTY:other'
p1438
aS'ENTY:cremat'
p1439
aS'ENTY:food'
p1440
aS'ENTY:termeq'
p1441
aS'ENTY:animal'
p1442
aa(lp1443
S'DESC:desc'
p1444
aS'DESC:def'
p1445
aS'DESC:manner'
p1446
aS'DESC:reason'
p1447
aa(lp1448
S'NUM:money'
p1449
aS'NUM:count'
p1450
aS'NUM:date'
p1451
aS'NUM:period'
p1452
aS'NUM:perc'
p1453
aa(lp1454
S'HUM:ind'
p1455
aS'HUM:gr'
p1456
aS'HUM:title'
p1457
aS'HUM:desc'
p1458
aa(lp1459
S'HUM:ind'
p1460
aS'HUM:gr'
p1461
aS'HUM:title'
p1462
aS'HUM:desc'
p1463
aa(lp1464
S'NUM:count'
p1465
aS'NUM:date'
p1466
aS'NUM:money'
p1467
aS'NUM:period'
p1468
aS'NUM:weight'
p1469
aa(lp1470
S'ENTY:other'
p1471
aS'ENTY:cremat'
p1472
aS'ENTY:animal'
p1473
aS'ENTY:food'
p1474
aS'ENTY:sport'
p1475
aa(lp1476
S'NUM:period'
p1477
aS'NUM:count'
p1478
aS'NUM:date'
p1479
aS'NUM:money'
p1480
aS'NUM:dist'
p1481
aa(lp1482
S'DESC:desc'
p1483
aS'DESC:def'
p1484
aS'DESC:manner'
p1485
aS'DESC:reason'
p1486
aa(lp1487
S'DESC:desc'
p1488
aS'DESC:def'
p1489
aS'DESC:manner'
p1490
aS'DESC:reason'
p1491
aa(lp1492
S'LOC:city'
p1493
aS'LOC:other'
p1494
aS'LOC:country'
p1495
aS'LOC:state'
p1496
aS'LOC:mount'
p1497
aa(lp1498
S'NUM:period'
p1499
aS'NUM:count'
p1500
aS'NUM:other'
p1501
aS'NUM:money'
p1502
aS'NUM:dist'
p1503
aa(lp1504
S'DESC:manner'
p1505
aS'DESC:reason'
p1506
aS'DESC:desc'
p1507
aS'DESC:def'
p1508
aa(lp1509
S'ENTY:lang'
p1510
aS'ENTY:other'
p1511
aS'ENTY:cremat'
p1512
aS'ENTY:animal'
p1513
aS'ENTY:food'
p1514
aa(lp1515
S'DESC:desc'
p1516
aS'DESC:manner'
p1517
aS'DESC:reason'
p1518
aS'DESC:def'
p1519
aa(lp1520
S'DESC:desc'
p1521
aS'DESC:def'
p1522
aS'DESC:manner'
p1523
aS'DESC:reason'
p1524
aa(lp1525
S'HUM:ind'
p1526
aS'HUM:gr'
p1527
aS'HUM:title'
p1528
aS'HUM:desc'
p1529
aa(lp1530
S'DESC:desc'
p1531
aS'DESC:def'
p1532
aS'DESC:manner'
p1533
aS'DESC:reason'
p1534
aa(lp1535
S'DESC:reason'
p1536
aS'DESC:desc'
p1537
aS'DESC:manner'
p1538
aS'DESC:def'
p1539
aa(lp1540
S'DESC:def'
p1541
aS'DESC:desc'
p1542
aS'DESC:manner'
p1543
aS'DESC:reason'
p1544
aa(lp1545
S'NUM:date'
p1546
aS'NUM:count'
p1547
aS'NUM:money'
p1548
aS'NUM:period'
p1549
aS'NUM:perc'
p1550
aa(lp1551
S'ABBR:exp'
p1552
aS'ABBR:abb'
p1553
aa(lp1554
S'ENTY:substance'
p1555
aS'ENTY:other'
p1556
aS'ENTY:cremat'
p1557
aS'ENTY:animal'
p1558
aS'ENTY:techmeth'
p1559
aa(lp1560
S'LOC:other'
p1561
aS'LOC:country'
p1562
aS'LOC:mount'
p1563
aS'LOC:city'
p1564
aS'LOC:state'
p1565
aa(lp1566
S'HUM:ind'
p1567
aS'HUM:gr'
p1568
aS'HUM:title'
p1569
aS'HUM:desc'
p1570
aa(lp1571
S'ABBR:exp'
p1572
aS'ABBR:abb'
p1573
aa(lp1574
S'DESC:desc'
p1575
aS'DESC:def'
p1576
aS'DESC:manner'
p1577
aS'DESC:reason'
p1578
aa(lp1579
S'LOC:other'
p1580
aS'LOC:country'
p1581
aS'LOC:state'
p1582
aS'LOC:mount'
p1583
aS'LOC:city'
p1584
aa(lp1585
S'DESC:desc'
p1586
aS'DESC:def'
p1587
aS'DESC:reason'
p1588
aS'DESC:manner'
p1589
aa(lp1590
S'DESC:desc'
p1591
aS'DESC:def'
p1592
aS'DESC:manner'
p1593
aS'DESC:reason'
p1594
aa(lp1595
S'DESC:desc'
p1596
aS'DESC:def'
p1597
aS'DESC:reason'
p1598
aS'DESC:manner'
p1599
aa(lp1600
S'DESC:desc'
p1601
aS'DESC:def'
p1602
aS'DESC:manner'
p1603
aS'DESC:reason'
p1604
aa(lp1605
S'DESC:desc'
p1606
aS'DESC:def'
p1607
aS'DESC:manner'
p1608
aS'DESC:reason'
p1609
aa(lp1610
S'LOC:city'
p1611
aS'LOC:other'
p1612
aS'LOC:country'
p1613
aS'LOC:state'
p1614
aS'LOC:mount'
p1615
aa(lp1616
S'ENTY:food'
p1617
aS'ENTY:other'
p1618
aS'ENTY:cremat'
p1619
aS'ENTY:animal'
p1620
aS'ENTY:termeq'
p1621
aa(lp1622
S'NUM:period'
p1623
aS'NUM:count'
p1624
aS'NUM:money'
p1625
aS'NUM:date'
p1626
aS'NUM:other'
p1627
aa(lp1628
S'ENTY:termeq'
p1629
aS'ENTY:animal'
p1630
aS'ENTY:food'
p1631
aS'ENTY:other'
p1632
aS'ENTY:substance'
p1633
aa(lp1634
S'DESC:desc'
p1635
aS'DESC:def'
p1636
aS'DESC:reason'
p1637
aS'DESC:manner'
p1638
aa(lp1639
S'DESC:desc'
p1640
aS'DESC:def'
p1641
aS'DESC:manner'
p1642
aS'DESC:reason'
p1643
aa(lp1644
S'ENTY:other'
p1645
aS'ENTY:cremat'
p1646
aS'ENTY:animal'
p1647
aS'ENTY:food'
p1648
aS'ENTY:termeq'
p1649
aa(lp1650
S'NUM:period'
p1651
aS'NUM:count'
p1652
aS'NUM:money'
p1653
aS'NUM:date'
p1654
aS'NUM:dist'
p1655
aa(lp1656
S'ENTY:cremat'
p1657
aS'ENTY:techmeth'
p1658
aS'ENTY:other'
p1659
aS'ENTY:dismed'
p1660
aS'ENTY:termeq'
p1661
aa(lp1662
S'ENTY:other'
p1663
aS'ENTY:cremat'
p1664
aS'ENTY:animal'
p1665
aS'ENTY:food'
p1666
aS'ENTY:termeq'
p1667
aa(lp1668
S'ABBR:exp'
p1669
aS'ABBR:abb'
p1670
aa(lp1671
S'NUM:date'
p1672
aS'NUM:count'
p1673
aS'NUM:money'
p1674
aS'NUM:period'
p1675
aS'NUM:perc'
p1676
aa(lp1677
S'DESC:manner'
p1678
aS'DESC:desc'
p1679
aS'DESC:def'
p1680
aS'DESC:reason'
p1681
aa(lp1682
S'NUM:date'
p1683
aS'NUM:count'
p1684
aS'NUM:period'
p1685
aS'NUM:money'
p1686
aS'NUM:other'
p1687
aa(lp1688
S'NUM:date'
p1689
aS'NUM:count'
p1690
aS'NUM:money'
p1691
aS'NUM:period'
p1692
aS'NUM:other'
p1693
aa(lp1694
S'LOC:other'
p1695
aS'LOC:country'
p1696
aS'LOC:mount'
p1697
aS'LOC:city'
p1698
aS'LOC:state'
p1699
aa(lp1700
S'HUM:ind'
p1701
aS'HUM:gr'
p1702
aS'HUM:title'
p1703
aS'HUM:desc'
p1704
aa(lp1705
S'LOC:other'
p1706
aS'LOC:country'
p1707
aS'LOC:city'
p1708
aS'LOC:state'
p1709
aS'LOC:mount'
p1710
aa(lp1711
S'HUM:ind'
p1712
aS'HUM:gr'
p1713
aS'HUM:title'
p1714
aS'HUM:desc'
p1715
aa(lp1716
S'NUM:date'
p1717
aS'NUM:count'
p1718
aS'NUM:period'
p1719
aS'NUM:money'
p1720
aS'NUM:perc'
p1721
aa(lp1722
S'LOC:city'
p1723
aS'LOC:other'
p1724
aS'LOC:country'
p1725
aS'LOC:state'
p1726
aS'LOC:mount'
p1727
aa(lp1728
S'LOC:other'
p1729
aS'LOC:country'
p1730
aS'LOC:mount'
p1731
aS'LOC:state'
p1732
aS'LOC:city'
p1733
aa(lp1734
S'NUM:count'
p1735
aS'NUM:money'
p1736
aS'NUM:period'
p1737
aS'NUM:date'
p1738
aS'NUM:other'
p1739
aa(lp1740
S'DESC:desc'
p1741
aS'DESC:def'
p1742
aS'DESC:manner'
p1743
aS'DESC:reason'
p1744
aa(lp1745
S'LOC:other'
p1746
aS'LOC:country'
p1747
aS'LOC:state'
p1748
aS'LOC:city'
p1749
aS'LOC:mount'
p1750
aa(lp1751
S'DESC:manner'
p1752
aS'DESC:desc'
p1753
aS'DESC:def'
p1754
aS'DESC:reason'
p1755
aa(lp1756
S'HUM:ind'
p1757
aS'HUM:gr'
p1758
aS'HUM:title'
p1759
aS'HUM:desc'
p1760
aa(lp1761
S'LOC:other'
p1762
aS'LOC:country'
p1763
aS'LOC:mount'
p1764
aS'LOC:city'
p1765
aS'LOC:state'
p1766
aa(lp1767
S'ENTY:cremat'
p1768
aS'ENTY:other'
p1769
aS'ENTY:food'
p1770
aS'ENTY:animal'
p1771
aS'ENTY:lang'
p1772
aa(lp1773
S'LOC:other'
p1774
aS'LOC:country'
p1775
aS'LOC:state'
p1776
aS'LOC:city'
p1777
aS'LOC:mount'
p1778
aa(lp1779
S'DESC:def'
p1780
aS'DESC:desc'
p1781
aS'DESC:manner'
p1782
aS'DESC:reason'
p1783
aa(lp1784
S'NUM:date'
p1785
aS'NUM:count'
p1786
aS'NUM:money'
p1787
aS'NUM:period'
p1788
aS'NUM:other'
p1789
aa(lp1790
S'ABBR:exp'
p1791
aS'ABBR:abb'
p1792
aa(lp1793
S'ENTY:food'
p1794
aS'ENTY:color'
p1795
aS'ENTY:other'
p1796
aS'ENTY:cremat'
p1797
aS'ENTY:animal'
p1798
aa(lp1799
S'NUM:date'
p1800
aS'NUM:count'
p1801
aS'NUM:money'
p1802
aS'NUM:period'
p1803
aS'NUM:other'
p1804
aa(lp1805
S'ABBR:exp'
p1806
aS'ABBR:abb'
p1807
aa(lp1808
S'DESC:reason'
p1809
aS'DESC:manner'
p1810
aS'DESC:def'
p1811
aS'DESC:desc'
p1812
aa(lp1813
S'NUM:count'
p1814
aS'NUM:money'
p1815
aS'NUM:other'
p1816
aS'NUM:dist'
p1817
aS'NUM:perc'
p1818
aa(lp1819
S'NUM:date'
p1820
aS'NUM:count'
p1821
aS'NUM:money'
p1822
aS'NUM:other'
p1823
aS'NUM:period'
p1824
aa(lp1825
S'DESC:def'
p1826
aS'DESC:desc'
p1827
aS'DESC:manner'
p1828
aS'DESC:reason'
p1829
aa(lp1830
S'DESC:desc'
p1831
aS'DESC:def'
p1832
aS'DESC:manner'
p1833
aS'DESC:reason'
p1834
aa(lp1835
S'NUM:date'
p1836
aS'NUM:count'
p1837
aS'NUM:money'
p1838
aS'NUM:period'
p1839
aS'NUM:other'
p1840
aa(lp1841
S'ENTY:animal'
p1842
aS'ENTY:termeq'
p1843
aS'ENTY:cremat'
p1844
aS'ENTY:dismed'
p1845
aS'ENTY:food'
p1846
aa(lp1847
S'ENTY:cremat'
p1848
aS'ENTY:other'
p1849
aS'ENTY:animal'
p1850
aS'ENTY:termeq'
p1851
aS'ENTY:sport'
p1852
aa(lp1853
S'NUM:date'
p1854
aS'NUM:money'
p1855
aS'NUM:count'
p1856
aS'NUM:period'
p1857
aS'NUM:other'
p1858
aa(lp1859
S'LOC:other'
p1860
aS'LOC:country'
p1861
aS'LOC:city'
p1862
aS'LOC:state'
p1863
aS'LOC:mount'
p1864
aa(lp1865
S'DESC:desc'
p1866
aS'DESC:def'
p1867
aS'DESC:manner'
p1868
aS'DESC:reason'
p1869
aa(lp1870
S'ENTY:food'
p1871
aS'ENTY:other'
p1872
aS'ENTY:cremat'
p1873
aS'ENTY:animal'
p1874
aS'ENTY:dismed'
p1875
aa(lp1876
S'DESC:desc'
p1877
aS'DESC:def'
p1878
aS'DESC:manner'
p1879
aS'DESC:reason'
p1880
aa(lp1881
S'NUM:count'
p1882
aS'NUM:date'
p1883
aS'NUM:period'
p1884
aS'NUM:perc'
p1885
aS'NUM:other'
p1886
aa(lp1887
S'NUM:weight'
p1888
aS'NUM:count'
p1889
aS'NUM:money'
p1890
aS'NUM:period'
p1891
aS'NUM:other'
p1892
aa(lp1893
S'ENTY:cremat'
p1894
aS'ENTY:event'
p1895
aS'ENTY:food'
p1896
aS'ENTY:sport'
p1897
aS'ENTY:other'
p1898
aa(lp1899
S'NUM:count'
p1900
aS'NUM:period'
p1901
aS'NUM:other'
p1902
aS'NUM:date'
p1903
aS'NUM:money'
p1904
aa(lp1905
S'HUM:ind'
p1906
aS'HUM:gr'
p1907
aS'HUM:title'
p1908
aS'HUM:desc'
p1909
aa(lp1910
S'NUM:count'
p1911
aS'NUM:other'
p1912
aS'NUM:date'
p1913
aS'NUM:money'
p1914
aS'NUM:period'
p1915
aa(lp1916
S'HUM:ind'
p1917
aS'HUM:gr'
p1918
aS'HUM:title'
p1919
aS'HUM:desc'
p1920
aa(lp1921
S'ENTY:other'
p1922
aS'ENTY:cremat'
p1923
aS'ENTY:animal'
p1924
aS'ENTY:food'
p1925
aS'ENTY:termeq'
p1926
aa(lp1927
S'DESC:desc'
p1928
aS'DESC:def'
p1929
aS'DESC:manner'
p1930
aS'DESC:reason'
p1931
aa(lp1932
S'NUM:date'
p1933
aS'NUM:count'
p1934
aS'NUM:money'
p1935
aS'NUM:period'
p1936
aS'NUM:other'
p1937
aa(lp1938
S'DESC:desc'
p1939
aS'DESC:def'
p1940
aS'DESC:manner'
p1941
aS'DESC:reason'
p1942
aa(lp1943
S'NUM:date'
p1944
aS'NUM:other'
p1945
aS'NUM:count'
p1946
aS'NUM:money'
p1947
aS'NUM:period'
p1948
aa(lp1949
S'LOC:other'
p1950
aS'LOC:country'
p1951
aS'LOC:state'
p1952
aS'LOC:city'
p1953
aS'LOC:mount'
p1954
aa(lp1955
S'ENTY:other'
p1956
aS'ENTY:plant'
p1957
aS'ENTY:cremat'
p1958
aS'ENTY:animal'
p1959
aS'ENTY:food'
p1960
aa(lp1961
S'ENTY:animal'
p1962
aS'ENTY:other'
p1963
aS'ENTY:cremat'
p1964
aS'ENTY:food'
p1965
aS'ENTY:dismed'
p1966
aa(lp1967
S'DESC:desc'
p1968
aS'DESC:def'
p1969
aS'DESC:manner'
p1970
aS'DESC:reason'
p1971
aa(lp1972
S'HUM:ind'
p1973
aS'HUM:gr'
p1974
aS'HUM:title'
p1975
aS'HUM:desc'
p1976
aa(lp1977
S'NUM:speed'
p1978
aS'NUM:date'
p1979
aS'NUM:period'
p1980
aS'NUM:count'
p1981
aS'NUM:money'
p1982
aa(lp1983
S'NUM:count'
p1984
aS'NUM:money'
p1985
aS'NUM:date'
p1986
aS'NUM:period'
p1987
aS'NUM:other'
p1988
aa(lp1989
S'DESC:reason'
p1990
aS'DESC:desc'
p1991
aS'DESC:manner'
p1992
aS'DESC:def'
p1993
aa(lp1994
S'ENTY:animal'
p1995
aS'ENTY:other'
p1996
aS'ENTY:cremat'
p1997
aS'ENTY:food'
p1998
aS'ENTY:dismed'
p1999
aa(lp2000
S'DESC:desc'
p2001
aS'DESC:def'
p2002
aS'DESC:manner'
p2003
aS'DESC:reason'
p2004
aa(lp2005
S'DESC:desc'
p2006
aS'DESC:def'
p2007
aS'DESC:manner'
p2008
aS'DESC:reason'
p2009
aa(lp2010
S'ENTY:other'
p2011
aS'ENTY:cremat'
p2012
aS'ENTY:animal'
p2013
aS'ENTY:termeq'
p2014
aS'ENTY:food'
p2015
aa(lp2016
S'NUM:count'
p2017
aS'NUM:period'
p2018
aS'NUM:other'
p2019
aS'NUM:money'
p2020
aS'NUM:date'
p2021
aa(lp2022
S'DESC:desc'
p2023
aS'DESC:def'
p2024
aS'DESC:manner'
p2025
aS'DESC:reason'
p2026
aa(lp2027
S'NUM:date'
p2028
aS'NUM:count'
p2029
aS'NUM:money'
p2030
aS'NUM:period'
p2031
aS'NUM:other'
p2032
aa(lp2033
S'ENTY:other'
p2034
aS'ENTY:food'
p2035
aS'ENTY:cremat'
p2036
aS'ENTY:termeq'
p2037
aS'ENTY:sport'
p2038
aa(lp2039
S'ENTY:other'
p2040
aS'ENTY:color'
p2041
aS'ENTY:cremat'
p2042
aS'ENTY:event'
p2043
aS'ENTY:word'
p2044
aa(lp2045
S'DESC:desc'
p2046
aS'DESC:def'
p2047
aS'DESC:manner'
p2048
aS'DESC:reason'
p2049
aa(lp2050
S'LOC:other'
p2051
aS'LOC:country'
p2052
aS'LOC:city'
p2053
aS'LOC:state'
p2054
aS'LOC:mount'
p2055
aa(lp2056
S'NUM:perc'
p2057
aS'NUM:count'
p2058
aS'NUM:weight'
p2059
aS'NUM:date'
p2060
aS'NUM:money'
p2061
aa(lp2062
S'ENTY:other'
p2063
aS'ENTY:cremat'
p2064
aS'ENTY:food'
p2065
aS'ENTY:animal'
p2066
aS'ENTY:termeq'
p2067
aa(lp2068
S'DESC:desc'
p2069
aS'DESC:def'
p2070
aS'DESC:reason'
p2071
aS'DESC:manner'
p2072
aa(lp2073
S'DESC:desc'
p2074
aS'DESC:def'
p2075
aS'DESC:manner'
p2076
aS'DESC:reason'
p2077
aa(lp2078
S'ENTY:dismed'
p2079
aS'ENTY:other'
p2080
aS'ENTY:cremat'
p2081
aS'ENTY:food'
p2082
aS'ENTY:sport'
p2083
aa(lp2084
S'NUM:count'
p2085
aS'NUM:date'
p2086
aS'NUM:money'
p2087
aS'NUM:dist'
p2088
aS'NUM:period'
p2089
aa(lp2090
S'LOC:other'
p2091
aS'LOC:country'
p2092
aS'LOC:mount'
p2093
aS'LOC:state'
p2094
aS'LOC:city'
p2095
aa(lp2096
S'DESC:desc'
p2097
aS'DESC:def'
p2098
aS'DESC:reason'
p2099
aS'DESC:manner'
p2100
aa(lp2101
S'ABBR:exp'
p2102
aS'ABBR:abb'
p2103
aa(lp2104
S'DESC:desc'
p2105
aS'DESC:def'
p2106
aS'DESC:manner'
p2107
aS'DESC:reason'
p2108
aa(lp2109
S'HUM:ind'
p2110
aS'HUM:gr'
p2111
aS'HUM:title'
p2112
aS'HUM:desc'
p2113
aa(lp2114
S'HUM:ind'
p2115
aS'HUM:gr'
p2116
aS'HUM:title'
p2117
aS'HUM:desc'
p2118
aa(lp2119
S'ENTY:other'
p2120
aS'ENTY:cremat'
p2121
aS'ENTY:animal'
p2122
aS'ENTY:food'
p2123
aS'ENTY:termeq'
p2124
aa(lp2125
S'HUM:ind'
p2126
aS'HUM:gr'
p2127
aS'HUM:title'
p2128
aS'HUM:desc'
p2129
aa(lp2130
S'NUM:count'
p2131
aS'NUM:date'
p2132
aS'NUM:period'
p2133
aS'NUM:other'
p2134
aS'NUM:money'
p2135
aa(lp2136
S'NUM:date'
p2137
aS'NUM:count'
p2138
aS'NUM:money'
p2139
aS'NUM:other'
p2140
aS'NUM:period'
p2141
aa(lp2142
S'DESC:desc'
p2143
aS'DESC:def'
p2144
aS'DESC:manner'
p2145
aS'DESC:reason'
p2146
aa(lp2147
S'HUM:ind'
p2148
aS'HUM:gr'
p2149
aS'HUM:title'
p2150
aS'HUM:desc'
p2151
aa(lp2152
S'DESC:desc'
p2153
aS'DESC:def'
p2154
aS'DESC:manner'
p2155
aS'DESC:reason'
p2156
aa(lp2157
S'DESC:desc'
p2158
aS'DESC:reason'
p2159
aS'DESC:def'
p2160
aS'DESC:manner'
p2161
aa(lp2162
S'HUM:ind'
p2163
aS'HUM:gr'
p2164
aS'HUM:title'
p2165
aS'HUM:desc'
p2166
aa(lp2167
S'DESC:desc'
p2168
aS'DESC:def'
p2169
aS'DESC:manner'
p2170
aS'DESC:reason'
p2171
aa(lp2172
S'ENTY:food'
p2173
aS'ENTY:cremat'
p2174
aS'ENTY:animal'
p2175
aS'ENTY:other'
p2176
aS'ENTY:dismed'
p2177
aa(lp2178
S'NUM:count'
p2179
aS'NUM:date'
p2180
aS'NUM:other'
p2181
aS'NUM:dist'
p2182
aS'NUM:perc'
p2183
aa(lp2184
S'DESC:desc'
p2185
aS'DESC:def'
p2186
aS'DESC:manner'
p2187
aS'DESC:reason'
p2188
aa(lp2189
S'DESC:manner'
p2190
aS'DESC:desc'
p2191
aS'DESC:def'
p2192
aS'DESC:reason'
p2193
aa(lp2194
S'DESC:desc'
p2195
aS'DESC:def'
p2196
aS'DESC:manner'
p2197
aS'DESC:reason'
p2198
aa(lp2199
S'NUM:money'
p2200
aS'NUM:count'
p2201
aS'NUM:date'
p2202
aS'NUM:other'
p2203
aS'NUM:period'
p2204
aa(lp2205
S'NUM:count'
p2206
aS'NUM:perc'
p2207
aS'NUM:date'
p2208
aS'NUM:other'
p2209
aS'NUM:money'
p2210
aa(lp2211
S'LOC:mount'
p2212
aS'LOC:state'
p2213
aS'LOC:other'
p2214
aS'LOC:country'
p2215
aS'LOC:city'
p2216
aa(lp2217
S'HUM:ind'
p2218
aS'HUM:gr'
p2219
aS'HUM:title'
p2220
aS'HUM:desc'
p2221
aa(lp2222
S'ENTY:food'
p2223
aS'ENTY:other'
p2224
aS'ENTY:cremat'
p2225
aS'ENTY:animal'
p2226
aS'ENTY:word'
p2227
aa(lp2228
S'NUM:date'
p2229
aS'NUM:count'
p2230
aS'NUM:money'
p2231
aS'NUM:period'
p2232
aS'NUM:other'
p2233
aa(lp2234
S'ABBR:exp'
p2235
aS'ABBR:abb'
p2236
aa(lp2237
S'NUM:count'
p2238
aS'NUM:dist'
p2239
aS'NUM:period'
p2240
aS'NUM:date'
p2241
aS'NUM:money'
p2242
aa(lp2243
S'LOC:city'
p2244
aS'LOC:other'
p2245
aS'LOC:country'
p2246
aS'LOC:state'
p2247
aS'LOC:mount'
p2248
aa(lp2249
S'DESC:manner'
p2250
aS'DESC:desc'
p2251
aS'DESC:def'
p2252
aS'DESC:reason'
p2253
aa(lp2254
S'LOC:other'
p2255
aS'LOC:country'
p2256
aS'LOC:mount'
p2257
aS'LOC:state'
p2258
aS'LOC:city'
p2259
aa(lp2260
S'NUM:date'
p2261
aS'NUM:count'
p2262
aS'NUM:money'
p2263
aS'NUM:period'
p2264
aS'NUM:other'
p2265
aa(lp2266
S'DESC:desc'
p2267
aS'DESC:def'
p2268
aS'DESC:manner'
p2269
aS'DESC:reason'
p2270
aa(lp2271
S'HUM:ind'
p2272
aS'HUM:gr'
p2273
aS'HUM:title'
p2274
aS'HUM:desc'
p2275
aa(lp2276
S'ENTY:food'
p2277
aS'ENTY:substance'
p2278
aS'ENTY:other'
p2279
aS'ENTY:cremat'
p2280
aS'ENTY:product'
p2281
aa(lp2282
S'LOC:city'
p2283
aS'LOC:other'
p2284
aS'LOC:country'
p2285
aS'LOC:state'
p2286
aS'LOC:mount'
p2287
aa(lp2288
S'ABBR:exp'
p2289
aS'ABBR:abb'
p2290
aa(lp2291
S'ENTY:other'
p2292
aS'ENTY:plant'
p2293
aS'ENTY:cremat'
p2294
aS'ENTY:animal'
p2295
aS'ENTY:food'
p2296
aa(lp2297
S'DESC:desc'
p2298
aS'DESC:def'
p2299
aS'DESC:reason'
p2300
aS'DESC:manner'
p2301
aa(lp2302
S'DESC:def'
p2303
aS'DESC:desc'
p2304
aS'DESC:manner'
p2305
aS'DESC:reason'
p2306
aa(lp2307
S'DESC:desc'
p2308
aS'DESC:def'
p2309
aS'DESC:manner'
p2310
aS'DESC:reason'
p2311
aa(lp2312
S'HUM:ind'
p2313
aS'HUM:gr'
p2314
aS'HUM:title'
p2315
aS'HUM:desc'
p2316
aa(lp2317
S'HUM:ind'
p2318
aS'HUM:gr'
p2319
aS'HUM:title'
p2320
aS'HUM:desc'
p2321
aa(lp2322
S'NUM:date'
p2323
aS'NUM:count'
p2324
aS'NUM:money'
p2325
aS'NUM:period'
p2326
aS'NUM:other'
p2327
aa(lp2328
S'LOC:other'
p2329
aS'LOC:country'
p2330
aS'LOC:state'
p2331
aS'LOC:city'
p2332
aS'LOC:mount'
p2333
aa(lp2334
S'ENTY:cremat'
p2335
aS'ENTY:other'
p2336
aS'ENTY:animal'
p2337
aS'ENTY:termeq'
p2338
aS'ENTY:sport'
p2339
aa(lp2340
S'DESC:desc'
p2341
aS'DESC:def'
p2342
aS'DESC:manner'
p2343
aS'DESC:reason'
p2344
aa(lp2345
S'LOC:other'
p2346
aS'LOC:mount'
p2347
aS'LOC:country'
p2348
aS'LOC:state'
p2349
aS'LOC:city'
p2350
aa(lp2351
S'ENTY:cremat'
p2352
aS'ENTY:other'
p2353
aS'ENTY:animal'
p2354
aS'ENTY:termeq'
p2355
aS'ENTY:sport'
p2356
aa(lp2357
S'DESC:desc'
p2358
aS'DESC:reason'
p2359
aS'DESC:def'
p2360
aS'DESC:manner'
p2361
aa(lp2362
S'LOC:other'
p2363
aS'LOC:country'
p2364
aS'LOC:mount'
p2365
aS'LOC:state'
p2366
aS'LOC:city'
p2367
aa(lp2368
S'DESC:def'
p2369
aS'DESC:desc'
p2370
aS'DESC:reason'
p2371
aS'DESC:manner'
p2372
aa(lp2373
S'HUM:ind'
p2374
aS'HUM:gr'
p2375
aS'HUM:title'
p2376
aS'HUM:desc'
p2377
aa(lp2378
S'DESC:desc'
p2379
aS'DESC:manner'
p2380
aS'DESC:reason'
p2381
aS'DESC:def'
p2382
aa(lp2383
S'ENTY:animal'
p2384
aS'ENTY:other'
p2385
aS'ENTY:termeq'
p2386
aS'ENTY:cremat'
p2387
aS'ENTY:event'
p2388
aa(lp2389
S'LOC:other'
p2390
aS'LOC:country'
p2391
aS'LOC:mount'
p2392
aS'LOC:state'
p2393
aS'LOC:city'
p2394
aa(lp2395
S'HUM:ind'
p2396
aS'HUM:gr'
p2397
aS'HUM:title'
p2398
aS'HUM:desc'
p2399
aa(lp2400
S'DESC:desc'
p2401
aS'DESC:def'
p2402
aS'DESC:manner'
p2403
aS'DESC:reason'
p2404
aa(lp2405
S'DESC:desc'
p2406
aS'DESC:def'
p2407
aS'DESC:manner'
p2408
aS'DESC:reason'
p2409
aa(lp2410
S'DESC:def'
p2411
aS'DESC:desc'
p2412
aS'DESC:manner'
p2413
aS'DESC:reason'
p2414
aa(lp2415
S'NUM:date'
p2416
aS'NUM:count'
p2417
aS'NUM:money'
p2418
aS'NUM:period'
p2419
aS'NUM:other'
p2420
aa(lp2421
S'ABBR:exp'
p2422
aS'ABBR:abb'
p2423
aa(lp2424
S'ENTY:other'
p2425
aS'ENTY:animal'
p2426
aS'ENTY:cremat'
p2427
aS'ENTY:food'
p2428
aS'ENTY:sport'
p2429
aa(lp2430
S'HUM:ind'
p2431
aS'HUM:gr'
p2432
aS'HUM:title'
p2433
aS'HUM:desc'
p2434
aa(lp2435
S'ENTY:animal'
p2436
aS'ENTY:substance'
p2437
aS'ENTY:other'
p2438
aS'ENTY:cremat'
p2439
aS'ENTY:dismed'
p2440
aa(lp2441
S'LOC:country'
p2442
aS'LOC:other'
p2443
aS'LOC:city'
p2444
aS'LOC:state'
p2445
aS'LOC:mount'
p2446
aa(lp2447
S'ENTY:animal'
p2448
aS'ENTY:termeq'
p2449
aS'ENTY:other'
p2450
aS'ENTY:cremat'
p2451
aS'ENTY:food'
p2452
aa(lp2453
S'HUM:ind'
p2454
aS'HUM:gr'
p2455
aS'HUM:title'
p2456
aS'HUM:desc'
p2457
aa(lp2458
S'ENTY:animal'
p2459
aS'ENTY:other'
p2460
aS'ENTY:food'
p2461
aS'ENTY:cremat'
p2462
aS'ENTY:termeq'
p2463
aa(lp2464
S'LOC:other'
p2465
aS'LOC:country'
p2466
aS'LOC:state'
p2467
aS'LOC:city'
p2468
aS'LOC:mount'
p2469
aa(lp2470
S'HUM:ind'
p2471
aS'HUM:gr'
p2472
aS'HUM:title'
p2473
aS'HUM:desc'
p2474
aa(lp2475
S'NUM:date'
p2476
aS'NUM:count'
p2477
aS'NUM:money'
p2478
aS'NUM:period'
p2479
aS'NUM:other'
p2480
aa(lp2481
S'ENTY:animal'
p2482
aS'ENTY:other'
p2483
aS'ENTY:cremat'
p2484
aS'ENTY:food'
p2485
aS'ENTY:termeq'
p2486
aa(lp2487
S'ENTY:cremat'
p2488
aS'ENTY:other'
p2489
aS'ENTY:color'
p2490
aS'ENTY:dismed'
p2491
aS'ENTY:food'
p2492
aa(lp2493
S'ENTY:other'
p2494
aS'ENTY:cremat'
p2495
aS'ENTY:color'
p2496
aS'ENTY:techmeth'
p2497
aS'ENTY:animal'
p2498
aa(lp2499
S'ENTY:other'
p2500
aS'ENTY:food'
p2501
aS'ENTY:cremat'
p2502
aS'ENTY:animal'
p2503
aS'ENTY:dismed'
p2504
aa(lp2505
S'NUM:date'
p2506
aS'NUM:money'
p2507
aS'NUM:count'
p2508
aS'NUM:other'
p2509
aS'NUM:period'
p2510
aa(lp2511
S'NUM:count'
p2512
aS'NUM:period'
p2513
aS'NUM:money'
p2514
aS'NUM:dist'
p2515
aS'NUM:other'
p2516
aa(lp2517
S'NUM:date'
p2518
aS'NUM:count'
p2519
aS'NUM:money'
p2520
aS'NUM:dist'
p2521
aS'NUM:period'
p2522
aa(lp2523
S'ENTY:animal'
p2524
aS'ENTY:substance'
p2525
aS'ENTY:other'
p2526
aS'ENTY:cremat'
p2527
aS'ENTY:dismed'
p2528
aa(lp2529
S'LOC:other'
p2530
aS'LOC:country'
p2531
aS'LOC:city'
p2532
aS'LOC:state'
p2533
aS'LOC:mount'
p2534
aa(lp2535
S'DESC:desc'
p2536
aS'DESC:def'
p2537
aS'DESC:manner'
p2538
aS'DESC:reason'
p2539
aa(lp2540
S'DESC:desc'
p2541
aS'DESC:def'
p2542
aS'DESC:manner'
p2543
aS'DESC:reason'
p2544
aa(lp2545
S'HUM:ind'
p2546
aS'HUM:gr'
p2547
aS'HUM:title'
p2548
aS'HUM:desc'
p2549
aa(lp2550
S'ENTY:other'
p2551
aS'ENTY:animal'
p2552
aS'ENTY:cremat'
p2553
aS'ENTY:event'
p2554
aS'ENTY:food'
p2555
aa(lp2556
S'LOC:other'
p2557
aS'LOC:country'
p2558
aS'LOC:state'
p2559
aS'LOC:city'
p2560
aS'LOC:mount'
p2561
aa(lp2562
S'NUM:date'
p2563
aS'NUM:count'
p2564
aS'NUM:money'
p2565
aS'NUM:period'
p2566
aS'NUM:other'
p2567
aa(lp2568
S'LOC:other'
p2569
aS'LOC:city'
p2570
aS'LOC:country'
p2571
aS'LOC:state'
p2572
aS'LOC:mount'
p2573
aa(lp2574
S'ENTY:termeq'
p2575
aS'ENTY:animal'
p2576
aS'ENTY:food'
p2577
aS'ENTY:other'
p2578
aS'ENTY:cremat'
p2579
aa(lp2580
S'DESC:desc'
p2581
aS'DESC:def'
p2582
aS'DESC:reason'
p2583
aS'DESC:manner'
p2584
aa(lp2585
S'HUM:ind'
p2586
aS'HUM:gr'
p2587
aS'HUM:title'
p2588
aS'HUM:desc'
p2589
aa(lp2590
S'DESC:manner'
p2591
aS'DESC:desc'
p2592
aS'DESC:def'
p2593
aS'DESC:reason'
p2594
aa(lp2595
S'DESC:desc'
p2596
aS'DESC:def'
p2597
aS'DESC:manner'
p2598
aS'DESC:reason'
p2599
aa(lp2600
S'DESC:desc'
p2601
aS'DESC:def'
p2602
aS'DESC:reason'
p2603
aS'DESC:manner'
p2604
aa(lp2605
S'DESC:desc'
p2606
aS'DESC:def'
p2607
aS'DESC:manner'
p2608
aS'DESC:reason'
p2609
aa(lp2610
S'ENTY:other'
p2611
aS'ENTY:cremat'
p2612
aS'ENTY:food'
p2613
aS'ENTY:termeq'
p2614
aS'ENTY:animal'
p2615
aa(lp2616
S'NUM:count'
p2617
aS'NUM:other'
p2618
aS'NUM:date'
p2619
aS'NUM:money'
p2620
aS'NUM:period'
p2621
aa(lp2622
S'ENTY:sport'
p2623
aS'ENTY:other'
p2624
aS'ENTY:food'
p2625
aS'ENTY:cremat'
p2626
aS'ENTY:dismed'
p2627
aa(lp2628
S'ENTY:other'
p2629
aS'ENTY:cremat'
p2630
aS'ENTY:food'
p2631
aS'ENTY:termeq'
p2632
aS'ENTY:animal'
p2633
aa(lp2634
S'DESC:desc'
p2635
aS'DESC:def'
p2636
aS'DESC:manner'
p2637
aS'DESC:reason'
p2638
aa(lp2639
S'LOC:city'
p2640
aS'LOC:country'
p2641
aS'LOC:other'
p2642
aS'LOC:state'
p2643
aS'LOC:mount'
p2644
aa(lp2645
S'ENTY:color'
p2646
aS'ENTY:other'
p2647
aS'ENTY:cremat'
p2648
aS'ENTY:animal'
p2649
aS'ENTY:food'
p2650
aa(lp2651
S'LOC:other'
p2652
aS'LOC:country'
p2653
aS'LOC:city'
p2654
aS'LOC:state'
p2655
aS'LOC:mount'
p2656
aa(lp2657
S'ENTY:other'
p2658
aS'ENTY:cremat'
p2659
aS'ENTY:animal'
p2660
aS'ENTY:food'
p2661
aS'ENTY:event'
p2662
aa(lp2663
S'ENTY:other'
p2664
aS'ENTY:cremat'
p2665
aS'ENTY:sport'
p2666
aS'ENTY:substance'
p2667
aS'ENTY:word'
p2668
aa(lp2669
S'ENTY:cremat'
p2670
aS'ENTY:other'
p2671
aS'ENTY:food'
p2672
aS'ENTY:animal'
p2673
aS'ENTY:sport'
p2674
aa(lp2675
S'DESC:desc'
p2676
aS'DESC:def'
p2677
aS'DESC:manner'
p2678
aS'DESC:reason'
p2679
aa(lp2680
S'LOC:other'
p2681
aS'LOC:country'
p2682
aS'LOC:city'
p2683
aS'LOC:state'
p2684
aS'LOC:mount'
p2685
aa(lp2686
S'DESC:desc'
p2687
aS'DESC:def'
p2688
aS'DESC:manner'
p2689
aS'DESC:reason'
p2690
aa(lp2691
S'LOC:city'
p2692
aS'LOC:other'
p2693
aS'LOC:country'
p2694
aS'LOC:state'
p2695
aS'LOC:mount'
p2696
aa(lp2697
S'NUM:dist'
p2698
aS'NUM:count'
p2699
aS'NUM:date'
p2700
aS'NUM:money'
p2701
aS'NUM:period'
p2702
aa(lp2703
S'ENTY:other'
p2704
aS'ENTY:cremat'
p2705
aS'ENTY:techmeth'
p2706
aS'ENTY:dismed'
p2707
aS'ENTY:termeq'
p2708
aa(lp2709
S'ENTY:other'
p2710
aS'ENTY:cremat'
p2711
aS'ENTY:food'
p2712
aS'ENTY:animal'
p2713
aS'ENTY:techmeth'
p2714
aa(lp2715
S'DESC:desc'
p2716
aS'DESC:def'
p2717
aS'DESC:manner'
p2718
aS'DESC:reason'
p2719
aa(lp2720
S'DESC:desc'
p2721
aS'DESC:def'
p2722
aS'DESC:manner'
p2723
aS'DESC:reason'
p2724
aa(lp2725
S'ENTY:techmeth'
p2726
aS'ENTY:other'
p2727
aS'ENTY:animal'
p2728
aS'ENTY:food'
p2729
aS'ENTY:substance'
p2730
aa(lp2731
S'NUM:date'
p2732
aS'NUM:count'
p2733
aS'NUM:money'
p2734
aS'NUM:period'
p2735
aS'NUM:perc'
p2736
aa(lp2737
S'NUM:count'
p2738
aS'NUM:other'
p2739
aS'NUM:money'
p2740
aS'NUM:period'
p2741
aS'NUM:dist'
p2742
aa(lp2743
S'HUM:ind'
p2744
aS'HUM:gr'
p2745
aS'HUM:title'
p2746
aS'HUM:desc'
p2747
aa(lp2748
S'ENTY:other'
p2749
aS'ENTY:cremat'
p2750
aS'ENTY:food'
p2751
aS'ENTY:termeq'
p2752
aS'ENTY:product'
p2753
aa(lp2754
S'NUM:count'
p2755
aS'NUM:date'
p2756
aS'NUM:money'
p2757
aS'NUM:period'
p2758
aS'NUM:other'
p2759
aa(lp2760
S'ENTY:other'
p2761
aS'ENTY:cremat'
p2762
aS'ENTY:animal'
p2763
aS'ENTY:food'
p2764
aS'ENTY:termeq'
p2765
aa(lp2766
S'DESC:desc'
p2767
aS'DESC:def'
p2768
aS'DESC:manner'
p2769
aS'DESC:reason'
p2770
aa.