(lp0
(lp1
S'ENTY:other'
p2
aS'ENTY:cremat'
p3
aS'ENTY:food'
p4
aS'ENTY:sport'
p5
aS'ENTY:techmeth'
p6
aa(lp7
S'DESC:manner'
p8
aS'DESC:desc'
p9
aS'DESC:reason'
p10
aS'DESC:def'
p11
aa(lp12
S'DESC:manner'
p13
aS'DESC:def'
p14
aS'DESC:desc'
p15
aS'DESC:reason'
p16
aa(lp17
S'ENTY:other'
p18
aS'ENTY:dismed'
p19
aS'ENTY:cremat'
p20
aS'ENTY:animal'
p21
aS'ENTY:food'
p22
aa(lp23
S'NUM:count'
p24
aS'NUM:perc'
p25
aS'NUM:code'
p26
aS'NUM:dist'
p27
aS'NUM:weight'
p28
aa(lp29
S'ENTY:other'
p30
aS'ENTY:cremat'
p31
aS'ENTY:food'
p32
aS'ENTY:animal'
p33
aS'ENTY:dismed'
p34
aa(lp35
S'ENTY:other'
p36
aS'ENTY:cremat'
p37
aS'ENTY:dismed'
p38
aS'ENTY:food'
p39
aS'ENTY:termeq'
p40
aa(lp41
S'NUM:other'
p42
aS'NUM:count'
p43
aS'NUM:date'
p44
aS'NUM:perc'
p45
aS'NUM:period'
p46
aa(lp47
S'DESC:manner'
p48
aS'DESC:reason'
p49
aS'DESC:desc'
p50
aS'DESC:def'
p51
aa(lp52
S'NUM:date'
p53
aS'NUM:other'
p54
aS'NUM:count'
p55
aS'NUM:period'
p56
aS'NUM:perc'
p57
aa(lp58
S'NUM:count'
p59
aS'NUM:other'
p60
aS'NUM:date'
p61
aS'NUM:money'
p62
aS'NUM:dist'
p63
aa(lp64
S'LOC:other'
p65
aS'LOC:country'
p66
aS'LOC:city'
p67
aS'LOC:state'
p68
aS'LOC:mount'
p69
aa(lp70
S'HUM:ind'
p71
aS'HUM:desc'
p72
aS'HUM:gr'
p73
aS'HUM:title'
p74
aa(lp75
S'LOC:other'
p76
aS'LOC:country'
p77
aS'LOC:city'
p78
aS'LOC:state'
p79
aS'LOC:mount'
p80
aa(lp81
S'HUM:ind'
p82
aS'HUM:desc'
p83
aS'HUM:gr'
p84
aS'HUM:title'
p85
aa(lp86
S'NUM:other'
p87
aS'NUM:count'
p88
aS'NUM:date'
p89
aS'NUM:period'
p90
aS'NUM:perc'
p91
aa(lp92
S'LOC:other'
p93
aS'LOC:country'
p94
aS'LOC:state'
p95
aS'LOC:city'
p96
aS'LOC:mount'
p97
aa(lp98
S'LOC:other'
p99
aS'LOC:country'
p100
aS'LOC:city'
p101
aS'LOC:state'
p102
aS'LOC:mount'
p103
aa(lp104
S'NUM:date'
p105
aS'NUM:other'
p106
aS'NUM:count'
p107
aS'NUM:money'
p108
aS'NUM:period'
p109
aa(lp110
S'DESC:manner'
p111
aS'DESC:desc'
p112
aS'DESC:reason'
p113
aS'DESC:def'
p114
aa(lp115
S'LOC:other'
p116
aS'LOC:country'
p117
aS'LOC:state'
p118
aS'LOC:city'
p119
aS'LOC:mount'
p120
aa(lp121
S'DESC:manner'
p122
aS'DESC:desc'
p123
aS'DESC:def'
p124
aS'DESC:reason'
p125
aa(lp126
S'HUM:ind'
p127
aS'HUM:desc'
p128
aS'HUM:gr'
p129
aS'HUM:title'
p130
aa(lp131
S'LOC:other'
p132
aS'LOC:country'
p133
aS'LOC:city'
p134
aS'LOC:state'
p135
aS'LOC:mount'
p136
aa(lp137
S'ENTY:other'
p138
aS'ENTY:cremat'
p139
aS'ENTY:animal'
p140
aS'ENTY:termeq'
p141
aS'ENTY:dismed'
p142
aa(lp143
S'LOC:other'
p144
aS'LOC:country'
p145
aS'LOC:city'
p146
aS'LOC:state'
p147
aS'LOC:mount'
p148
aa(lp149
S'DESC:manner'
p150
aS'DESC:desc'
p151
aS'DESC:reason'
p152
aS'DESC:def'
p153
aa(lp154
S'NUM:other'
p155
aS'NUM:count'
p156
aS'NUM:date'
p157
aS'NUM:money'
p158
aS'NUM:dist'
p159
aa(lp160
S'ABBR:exp'
p161
aS'ABBR:abb'
p162
aa(lp163
S'ENTY:other'
p164
aS'ENTY:dismed'
p165
aS'ENTY:termeq'
p166
aS'ENTY:sport'
p167
aS'ENTY:techmeth'
p168
aa(lp169
S'NUM:date'
p170
aS'NUM:other'
p171
aS'NUM:count'
p172
aS'NUM:period'
p173
aS'NUM:perc'
p174
aa(lp175
S'ABBR:exp'
p176
aS'ABBR:abb'
p177
aa(lp178
S'DESC:def'
p179
aS'DESC:desc'
p180
aS'DESC:manner'
p181
aS'DESC:reason'
p182
aa(lp183
S'NUM:date'
p184
aS'NUM:other'
p185
aS'NUM:count'
p186
aS'NUM:money'
p187
aS'NUM:perc'
p188
aa(lp189
S'NUM:other'
p190
aS'NUM:date'
p191
aS'NUM:count'
p192
aS'NUM:money'
p193
aS'NUM:dist'
p194
aa(lp195
S'DESC:manner'
p196
aS'DESC:def'
p197
aS'DESC:desc'
p198
aS'DESC:reason'
p199
aa(lp200
S'DESC:manner'
p201
aS'DESC:desc'
p202
aS'DESC:reason'
p203
aS'DESC:def'
p204
aa(lp205
S'NUM:other'
p206
aS'NUM:date'
p207
aS'NUM:count'
p208
aS'NUM:period'
p209
aS'NUM:perc'
p210
aa(lp211
S'ENTY:other'
p212
aS'ENTY:cremat'
p213
aS'ENTY:animal'
p214
aS'ENTY:dismed'
p215
aS'ENTY:termeq'
p216
aa(lp217
S'ENTY:other'
p218
aS'ENTY:cremat'
p219
aS'ENTY:animal'
p220
aS'ENTY:dismed'
p221
aS'ENTY:food'
p222
aa(lp223
S'NUM:other'
p224
aS'NUM:count'
p225
aS'NUM:date'
p226
aS'NUM:perc'
p227
aS'NUM:money'
p228
aa(lp229
S'LOC:other'
p230
aS'LOC:country'
p231
aS'LOC:city'
p232
aS'LOC:state'
p233
aS'LOC:mount'
p234
aa(lp235
S'DESC:manner'
p236
aS'DESC:desc'
p237
aS'DESC:reason'
p238
aS'DESC:def'
p239
aa(lp240
S'ENTY:other'
p241
aS'ENTY:cremat'
p242
aS'ENTY:event'
p243
aS'ENTY:dismed'
p244
aS'ENTY:food'
p245
aa(lp246
S'DESC:manner'
p247
aS'DESC:desc'
p248
aS'DESC:reason'
p249
aS'DESC:def'
p250
aa(lp251
S'NUM:other'
p252
aS'NUM:count'
p253
aS'NUM:date'
p254
aS'NUM:money'
p255
aS'NUM:perc'
p256
aa(lp257
S'NUM:other'
p258
aS'NUM:count'
p259
aS'NUM:date'
p260
aS'NUM:dist'
p261
aS'NUM:money'
p262
aa(lp263
S'ENTY:other'
p264
aS'ENTY:dismed'
p265
aS'ENTY:cremat'
p266
aS'ENTY:animal'
p267
aS'ENTY:food'
p268
aa(lp269
S'NUM:other'
p270
aS'NUM:count'
p271
aS'NUM:date'
p272
aS'NUM:money'
p273
aS'NUM:perc'
p274
aa(lp275
S'HUM:ind'
p276
aS'HUM:desc'
p277
aS'HUM:gr'
p278
aS'HUM:title'
p279
aa(lp280
S'NUM:other'
p281
aS'NUM:count'
p282
aS'NUM:date'
p283
aS'NUM:money'
p284
aS'NUM:perc'
p285
aa(lp286
S'HUM:ind'
p287
aS'HUM:gr'
p288
aS'HUM:desc'
p289
aS'HUM:title'
p290
aa.